target datalayout = "e-m:e-p270:32:32-p271:32:32-p272:64:64-i64:64-i128:128-f80:128-n8:16:32:64-S128"
target triple = "x86_64-pc-linux-gnu"

%struct.AVCodecContext = type { ptr, i32, i32, ptr, i32, i32, ptr, ptr, ptr, i64, i32, i32, ptr, i32, %struct.AVRational, %struct.AVRational, %struct.AVRational, i32, i32, i32, i32, i32, %struct.AVRational, i32, i32, i32, i32, i32, i32, i32, i32, i32, i32, i32, ptr, ptr, i32, float, float, float, float, float, float, float, float, float, i32, i32, i32, i32, i32, i32, i32, i32, i32, i32, i32, i32, ptr, ptr, ptr, i32, i32, i32, i32, i32, i32, i32, i32, i32, i32, %struct.AVChannelLayout, i32, i32, i32, i32, i32, i32, i32, i32, ptr, i32, i32, i32, float, float, i32, i32, i32, i32, i32, ptr, i64, i64, float, float, i32, i32, ptr, ptr, i32, i32, i32, i32, i32, ptr, ptr, ptr, ptr, i32, i32, [8 x i64], i32, i32, i32, i32, i32, i32, i32, ptr, ptr, i32, i32, i32, i32, i32, i32, i32, i32, i32, i32, ptr, ptr, i32, i32, ptr, ptr, ptr, ptr, i32, i32, i64, i32, i32, i64, ptr, i64, ptr, i32, ptr, i32 }
%struct.AVRational = type { i32, i32 }
%struct.AVChannelLayout = type { i32, i32, %union.anon.0, ptr }
%union.anon.0 = type { i64 }
%struct.DXVContext = type { %struct.TextureDSPContext, %struct.GetByteContext, ptr, ptr, i64, i64, [4 x ptr], [4 x i64] }
%struct.TextureDSPContext = type { ptr, ptr, ptr, ptr, ptr, ptr, ptr, ptr, ptr, ptr, ptr, ptr, ptr, ptr, ptr }
%struct.GetByteContext = type { ptr, ptr, ptr }

; Function Attrs: nounwind uwtable
define internal i32 @dxv_decompress_yg10(ptr noundef %0) #1 {
  %2 = alloca i32, align 4
  %3 = alloca ptr, align 8
  %4 = alloca ptr, align 8
  %5 = alloca ptr, align 8
  %6 = alloca i32, align 4
  %7 = alloca i32, align 4
  store ptr %0, ptr %3, align 8, !tbaa !4
  call void @llvm.lifetime.start.p0(i64 8, ptr %4) #9
  %8 = load ptr, ptr %3, align 8, !tbaa !4
  %9 = getelementptr inbounds nuw %struct.AVCodecContext, ptr %8, i32 0, i32 6
  %10 = load ptr, ptr %9, align 8, !tbaa !9
  store ptr %10, ptr %4, align 8, !tbaa !29
  call void @llvm.lifetime.start.p0(i64 8, ptr %5) #9
  %11 = load ptr, ptr %4, align 8, !tbaa !29
  %12 = getelementptr inbounds nuw %struct.DXVContext, ptr %11, i32 0, i32 1
  store ptr %12, ptr %5, align 8, !tbaa !41
  call void @llvm.lifetime.start.p0(i64 4, ptr %6) #9
  %13 = load ptr, ptr %4, align 8, !tbaa !29
  %14 = load ptr, ptr %5, align 8, !tbaa !41
  %15 = load ptr, ptr %4, align 8, !tbaa !29
  %16 = getelementptr inbounds nuw %struct.DXVContext, ptr %15, i32 0, i32 2
  %17 = load ptr, ptr %16, align 8, !tbaa !69
  %18 = load ptr, ptr %4, align 8, !tbaa !29
  %19 = getelementptr inbounds nuw %struct.DXVContext, ptr %18, i32 0, i32 4
  %20 = load i64, ptr %19, align 8, !tbaa !62
  %21 = trunc i64 %20 to i32
  %22 = load ptr, ptr %4, align 8, !tbaa !29
  %23 = getelementptr inbounds nuw %struct.DXVContext, ptr %22, i32 0, i32 6
  %24 = getelementptr inbounds [4 x ptr], ptr %23, i64 0, i64 0
  %25 = load ptr, ptr %24, align 8, !tbaa !57
  %26 = load ptr, ptr %4, align 8, !tbaa !29
  %27 = getelementptr inbounds nuw %struct.DXVContext, ptr %26, i32 0, i32 6
  %28 = getelementptr inbounds [4 x ptr], ptr %27, i64 0, i64 3
  %29 = load ptr, ptr %28, align 8, !tbaa !57
  %30 = load ptr, ptr %4, align 8, !tbaa !29
  %31 = getelementptr inbounds nuw %struct.DXVContext, ptr %30, i32 0, i32 7
  %32 = getelementptr inbounds [4 x i64], ptr %31, i64 0, i64 0
  %33 = load i64, ptr %32, align 8, !tbaa !64
  %34 = trunc i64 %33 to i32
  %35 = load ptr, ptr %4, align 8, !tbaa !29
  %36 = getelementptr inbounds nuw %struct.DXVContext, ptr %35, i32 0, i32 7
  %37 = getelementptr inbounds [4 x i64], ptr %36, i64 0, i64 3
  %38 = load i64, ptr %37, align 8, !tbaa !64
  %39 = trunc i64 %38 to i32
  %40 = call i32 @dxv_decompress_cocg(ptr noundef %13, ptr noundef %14, ptr noundef %17, i32 noundef %21, ptr noundef %25, ptr noundef %29, i32 noundef %34, i32 noundef %39)
  store i32 %40, ptr %6, align 4, !tbaa !33
  %41 = load i32, ptr %6, align 4, !tbaa !33
  %42 = icmp slt i32 %41, 0
  br i1 %42, label %43, label %45

43:                                               ; preds = %1
  %44 = load i32, ptr %6, align 4, !tbaa !33
  store i32 %44, ptr %2, align 4
  store i32 1, ptr %7, align 4
  br label %74

45:                                               ; preds = %1
  %46 = load ptr, ptr %4, align 8, !tbaa !29
  %47 = load ptr, ptr %5, align 8, !tbaa !41
  %48 = load ptr, ptr %4, align 8, !tbaa !29
  %49 = getelementptr inbounds nuw %struct.DXVContext, ptr %48, i32 0, i32 3
  %50 = load ptr, ptr %49, align 8, !tbaa !72
  %51 = load ptr, ptr %4, align 8, !tbaa !29
  %52 = getelementptr inbounds nuw %struct.DXVContext, ptr %51, i32 0, i32 5
  %53 = load i64, ptr %52, align 8, !tbaa !63
  %54 = trunc i64 %53 to i32
  %55 = load ptr, ptr %4, align 8, !tbaa !29
  %56 = getelementptr inbounds nuw %struct.DXVContext, ptr %55, i32 0, i32 6
  %57 = getelementptr inbounds [4 x ptr], ptr %56, i64 0, i64 1
  %58 = load ptr, ptr %57, align 8, !tbaa !57
  %59 = load ptr, ptr %4, align 8, !tbaa !29
  %60 = getelementptr inbounds nuw %struct.DXVContext, ptr %59, i32 0, i32 6
  %61 = getelementptr inbounds [4 x ptr], ptr %60, i64 0, i64 2
  %62 = load ptr, ptr %61, align 8, !tbaa !57
  %63 = load ptr, ptr %4, align 8, !tbaa !29
  %64 = getelementptr inbounds nuw %struct.DXVContext, ptr %63, i32 0, i32 7
  %65 = getelementptr inbounds [4 x i64], ptr %64, i64 0, i64 1
  %66 = load i64, ptr %65, align 8, !tbaa !64
  %67 = trunc i64 %66 to i32
  %68 = load ptr, ptr %4, align 8, !tbaa !29
  %69 = getelementptr inbounds nuw %struct.DXVContext, ptr %68, i32 0, i32 7
  %70 = getelementptr inbounds [4 x i64], ptr %69, i64 0, i64 2
  %71 = load i64, ptr %70, align 8, !tbaa !64
  %72 = trunc i64 %71 to i32
  %73 = call i32 @dxv_decompress_cocg(ptr noundef %46, ptr noundef %47, ptr noundef %50, i32 noundef %54, ptr noundef %58, ptr noundef %62, i32 noundef %67, i32 noundef %72)
  store i32 %73, ptr %2, align 4
  store i32 1, ptr %7, align 4
  br label %74

74:                                               ; preds = %45, %43
  call void @llvm.lifetime.end.p0(i64 4, ptr %6) #9
  call void @llvm.lifetime.end.p0(i64 8, ptr %5) #9
  call void @llvm.lifetime.end.p0(i64 8, ptr %4) #9
  %75 = load i32, ptr %2, align 4
  ret i32 %75
}