; Function Attrs: nofree norecurse nosync nounwind memory(readwrite, inaccessiblemem: none) uwtable
define internal range(i32 -2147483648, 1) i32 @dxv_decompress_yg10(ptr noundef readonly captures(none) %0) unnamed_addr #4 {
  %2 = getelementptr inbounds nuw i8, ptr %0, i64 32
  %3 = load ptr, ptr %2, align 8, !tbaa !4
  %4 = getelementptr inbounds nuw i8, ptr %3, i64 120
  %5 = getelementptr inbounds nuw i8, ptr %3, i64 144
  %6 = load ptr, ptr %5, align 8, !tbaa !60
  %7 = getelementptr inbounds nuw i8, ptr %3, i64 160
  %8 = load i64, ptr %7, align 8, !tbaa !53
  %9 = trunc i64 %8 to i32
  %10 = getelementptr inbounds nuw i8, ptr %3, i64 176
  %11 = load ptr, ptr %10, align 8, !tbaa !40
  %12 = getelementptr inbounds nuw i8, ptr %3, i64 200
  %13 = load ptr, ptr %12, align 8, !tbaa !40
  %14 = getelementptr inbounds nuw i8, ptr %3, i64 208
  %15 = load i64, ptr %14, align 8, !tbaa !55
  %16 = trunc i64 %15 to i32
  %17 = getelementptr inbounds nuw i8, ptr %3, i64 232
  %18 = load i64, ptr %17, align 8, !tbaa !55
  %19 = trunc i64 %18 to i32
  %20 = tail call fastcc i32 @dxv_decompress_cocg(ptr noundef nonnull %4, ptr noundef %6, i32 noundef %9, ptr noundef %11, ptr noundef %13, i32 noundef %16, i32 noundef %19)
  %21 = icmp slt i32 %20, 0
  br i1 %21, label %39, label %22

22:                                               ; preds = %1
  %23 = getelementptr inbounds nuw i8, ptr %3, i64 152
  %24 = load ptr, ptr %23, align 8, !tbaa !63
  %25 = getelementptr inbounds nuw i8, ptr %3, i64 168
  %26 = load i64, ptr %25, align 8, !tbaa !54
  %27 = trunc i64 %26 to i32
  %28 = getelementptr inbounds nuw i8, ptr %3, i64 184
  %29 = load ptr, ptr %28, align 8, !tbaa !40
  %30 = getelementptr inbounds nuw i8, ptr %3, i64 192
  %31 = load ptr, ptr %30, align 8, !tbaa !40
  %32 = getelementptr inbounds nuw i8, ptr %3, i64 216
  %33 = load i64, ptr %32, align 8, !tbaa !55
  %34 = trunc i64 %33 to i32
  %35 = getelementptr inbounds nuw i8, ptr %3, i64 224
  %36 = load i64, ptr %35, align 8, !tbaa !55
  %37 = trunc i64 %36 to i32
  %38 = tail call fastcc i32 @dxv_decompress_cocg(ptr noundef nonnull %4, ptr noundef %24, i32 noundef %27, ptr noundef %29, ptr noundef %31, i32 noundef %34, i32 noundef %37)
  br label %39

39:                                               ; preds = %1, %22
  %.0 = phi i32 [ %38, %22 ], [ %20, %1 ]
  ret i32 %.0
}